; Function Attrs: nounwind uwtable
define dso_local noundef ptr @make_notclause(ptr noundef %0) local_unnamed_addr #0 {
  %2 = tail call noundef ptr @palloc0(i64 noundef 24) #7
  store i32 21, ptr %2, align 4
  %3 = getelementptr inbounds nuw i8, ptr %2, i64 4
  store i32 2, ptr %3, align 4
  %4 = tail call ptr @list_make1_impl(i32 noundef 1, ptr %0) #7
  %5 = getelementptr inbounds nuw i8, ptr %2, i64 8
  store ptr %4, ptr %5, align 8
  %6 = getelementptr inbounds nuw i8, ptr %2, i64 16
  store i32 -1, ptr %6, align 8
  ret ptr %2
}